#include <math.h>
#include <stdio.h>
#include <stdlib.h>
#include <string.h>

int main(){
	int n[100][16];
	int i,j,r,p;
	
	for(i=0; i<100; i++)
	{
		scanf("%d",&n[i][0]);
        if(n[i][0]==-1)  break;

        for(j=1; n[i][j-1]!=0; j++)
		{
			scanf("%d",&n[i][j]);
		}
		int t=0;
		for(r=0;r<j-1;r++)
		{
			for(p=r+1;p<j;p++)
			{
				if(n[i][p]==2*n[i][r])
				{
					t++;
					break;
				}
			}
		}
		for(r=j-1;r>0;r--){
			for(p=r-1;p>=0;p--)
			{
				if(n[i][p]==2*n[i][r])
				{
					t++;
					break;
				}
			}
		}

		printf("%d\n",t);
	}
	return 0;
}